target datalayout = "e-m:e-p270:32:32-p271:32:32-p272:64:64-i64:64-i128:128-f80:128-n8:16:32:64-S128"
target triple = "x86_64-pc-linux-gnu"

%struct.stb_vorbis = type { i32, i32, i32, i32, i32, ptr, i32, ptr, ptr, i32, i32, ptr, ptr, ptr, i32, i8, i32, %struct.ProbedPage, %struct.ProbedPage, %struct.stb_vorbis_alloc, i32, i32, i32, i32, [2 x i32], i32, i32, i32, ptr, i32, [64 x i16], ptr, i32, [64 x i16], ptr, i32, ptr, i32, [64 x %struct.Mode], i32, [16 x ptr], [16 x ptr], [16 x ptr], i32, [16 x ptr], i32, i32, [2 x ptr], [2 x ptr], [2 x ptr], [2 x ptr], [2 x ptr], i32, i32, i32, [255 x i8], i8, i8, i8, i32, i32, i32, i32, i32, i32, i32, i32, i32, i32, i32, [4 x %struct.CRCscan], i32, i32 }
%struct.ProbedPage = type { i32, i32, i32 }
%struct.stb_vorbis_alloc = type { ptr, i32 }
%struct.Mode = type { i8, i8, i16, i16 }
%struct.CRCscan = type { i32, i32, i32, i32, i32 }

; Function Attrs: nounwind uwtable
define void @skip(ptr noundef %0, i32 noundef %1) #0 {
  %3 = alloca ptr, align 8
  %4 = alloca i32, align 4
  %5 = alloca i64, align 8
  store ptr %0, ptr %3, align 8, !tbaa !3
  store i32 %1, ptr %4, align 4, !tbaa !8
  %6 = load ptr, ptr %3, align 8, !tbaa !3
  %7 = getelementptr inbounds nuw %struct.stb_vorbis, ptr %6, i32 0, i32 11
  %8 = load ptr, ptr %7, align 8, !tbaa !68
  %9 = icmp ne ptr %8, null
  br i1 %9, label %10, label %28

10:                                               ; preds = %2
  %11 = load i32, ptr %4, align 4, !tbaa !8
  %12 = load ptr, ptr %3, align 8, !tbaa !3
  %13 = getelementptr inbounds nuw %struct.stb_vorbis, ptr %12, i32 0, i32 11
  %14 = load ptr, ptr %13, align 8, !tbaa !68
  %15 = sext i32 %11 to i64
  %16 = getelementptr inbounds i8, ptr %14, i64 %15
  store ptr %16, ptr %13, align 8, !tbaa !68
  %17 = load ptr, ptr %3, align 8, !tbaa !3
  %18 = getelementptr inbounds nuw %struct.stb_vorbis, ptr %17, i32 0, i32 11
  %19 = load ptr, ptr %18, align 8, !tbaa !68
  %20 = load ptr, ptr %3, align 8, !tbaa !3
  %21 = getelementptr inbounds nuw %struct.stb_vorbis, ptr %20, i32 0, i32 13
  %22 = load ptr, ptr %21, align 8, !tbaa !69
  %23 = icmp uge ptr %19, %22
  br i1 %23, label %24, label %27

24:                                               ; preds = %10
  %25 = load ptr, ptr %3, align 8, !tbaa !3
  %26 = getelementptr inbounds nuw %struct.stb_vorbis, ptr %25, i32 0, i32 22
  store i32 1, ptr %26, align 8, !tbaa !17
  br label %27

27:                                               ; preds = %24, %10
  br label %41

28:                                               ; preds = %2
  call void @llvm.lifetime.start.p0(i64 8, ptr %5) #11
  %29 = load ptr, ptr %3, align 8, !tbaa !3
  %30 = getelementptr inbounds nuw %struct.stb_vorbis, ptr %29, i32 0, i32 8
  %31 = load ptr, ptr %30, align 8, !tbaa !70
  %32 = call i64 @ftell(ptr noundef %31)
  store i64 %32, ptr %5, align 8, !tbaa !71
  %33 = load ptr, ptr %3, align 8, !tbaa !3
  %34 = getelementptr inbounds nuw %struct.stb_vorbis, ptr %33, i32 0, i32 8
  %35 = load ptr, ptr %34, align 8, !tbaa !70
  %36 = load i64, ptr %5, align 8, !tbaa !71
  %37 = load i32, ptr %4, align 4, !tbaa !8
  %38 = sext i32 %37 to i64
  %39 = add nsw i64 %36, %38
  %40 = call i32 @fseek(ptr noundef %35, i64 noundef %39, i32 noundef 0)
  call void @llvm.lifetime.end.p0(i64 8, ptr %5) #11
  br label %41

41:                                               ; preds = %28, %27
  ret void
}