; Function Attrs: nofree nounwind uwtable
define void @skip(ptr noundef captures(none) %0, i32 noundef %1) local_unnamed_addr #17 {
  %3 = getelementptr inbounds nuw i8, ptr %0, i64 64
  %4 = load ptr, ptr %3, align 8, !tbaa !59
  %.not = icmp eq ptr %4, null
  br i1 %.not, label %12, label %5

5:                                                ; preds = %2
  %6 = sext i32 %1 to i64
  %7 = getelementptr inbounds i8, ptr %4, i64 %6
  store ptr %7, ptr %3, align 8, !tbaa !59
  %8 = getelementptr inbounds nuw i8, ptr %0, i64 80
  %9 = load ptr, ptr %8, align 8, !tbaa !60
  %.not9 = icmp ult ptr %7, %9
  br i1 %.not9, label %20, label %10

10:                                               ; preds = %5
  %11 = getelementptr inbounds nuw i8, ptr %0, i64 152
  store i32 1, ptr %11, align 8, !tbaa !61
  br label %20

12:                                               ; preds = %2
  %13 = getelementptr inbounds nuw i8, ptr %0, i64 48
  %14 = load ptr, ptr %13, align 8, !tbaa !62
  %15 = tail call i64 @ftell(ptr noundef %14)
  %16 = load ptr, ptr %13, align 8, !tbaa !62
  %17 = sext i32 %1 to i64
  %18 = add nsw i64 %15, %17
  %19 = tail call i32 @fseek(ptr noundef %16, i64 noundef %18, i32 noundef 0)
  br label %20

20:                                               ; preds = %5, %10, %12
  ret void
}